(lp0
(dp1
Vdomain
p2
V.guopan.cn
p3
sVname
p4
Vgpsessionid
p5
sVvalue
p6
VLogin_111_1948524_36b887d3db97f0eb227d646335be0c62
p7
sVpath
p8
V/
p9
sVhttpOnly
p10
I00
sVsecure
p11
I00
sa(dp12
Vdomain
p13
V.m.guopan.cn
p14
sVname
p15
VurlHref
p16
sVvalue
p17
V
p18
sVpath
p19
g9
sVhttpOnly
p20
I00
sVsecure
p21
I00
sa(dp22
Vdomain
p23
V.m.guopan.cn
p24
sVname
p25
Vuname
p26
sVvalue
p27
Vperfect3
p28
sVpath
p29
g9
sVhttpOnly
p30
I00
sVsecure
p31
I00
sa(dp32
Vdomain
p33
V.m.guopan.cn
p34
sVname
p35
Vunickname
p36
sVvalue
p37
V%E6%AD%A3%E6%9C%8D_%E5%AE%8C%E7%BE%8E3
p38
sVpath
p39
g9
sVhttpOnly
p40
I00
sVsecure
p41
I00
sa(dp42
Vdomain
p43
V.m.guopan.cn
p44
sVname
p45
Vuico
p46
sVvalue
p47
V160401%2Fac%2Fu_20160401172154.jpeg
p48
sVpath
p49
g9
sVhttpOnly
p50
I00
sVsecure
p51
I00
sa(dp52
Vdomain
p53
Vm.guopan.cn
p54
sVname
p55
Vuname
p56
sVvalue
p57
Vperfect3
p58
sVpath
p59
g9
sVhttpOnly
p60
I00
sVsecure
p61
I00
sa(dp62
Vdomain
p63
Vm.guopan.cn
p64
sVname
p65
VurlHref
p66
sVvalue
p67
g18
sVpath
p68
g9
sVhttpOnly
p69
I00
sVsecure
p70
I00
sa(dp71
Vdomain
p72
V.guopan.cn
p73
sVsecure
p74
I00
sVvalue
p75
VGA1.2.1597062400.1460603901
p76
sVexpiry
p77
I1526811920
sVpath
p78
g9
sVhttpOnly
p79
I00
sVname
p80
V_ga
p81
sa(dp82
Vdomain
p83
V.guopan.cn
p84
sVsecure
p85
I00
sVvalue
p86
V1
p87
sVexpiry
p88
I1463740511
sVpath
p89
g9
sVhttpOnly
p90
I00
sVname
p91
V_gat
p92
sa(dp93
Vdomain
p94
Vm.guopan.cn
p95
sVname
p96
Vunickname
p97
sVvalue
p98
V%E6%AD%A3%E6%9C%8D_%E5%AE%8C%E7%BE%8E3
p99
sVpath
p100
g9
sVhttpOnly
p101
I00
sVsecure
p102
I00
sa(dp103
Vdomain
p104
Vm.guopan.cn
p105
sVname
p106
Vuico
p107
sVvalue
p108
V160401%2Fac%2Fu_20160401172154.jpeg
p109
sVpath
p110
g9
sVhttpOnly
p111
I00
sVsecure
p112
I00
sa(dp113
Vdomain
p114
Vm.guopan.cn
p115
sVsecure
p116
I00
sVvalue
p117
VLogin_111_1948524_36b887d3db97f0eb227d646335be0c62
p118
sVexpiry
p119
F1463999119.808993
sVpath
p120
g9
sVhttpOnly
p121
I00
sVname
p122
Vlk
p123
sa(dp124
Vdomain
p125
V.m.guopan.cn
p126
sVname
p127
VHm_lpvt_6cd1c488b3294714cecd706eb1e8dedd
p128
sVvalue
p129
V1463739920
p130
sVpath
p131
g9
sVhttpOnly
p132
I00
sVsecure
p133
I00
sa(dp134
Vdomain
p135
Vm.guopan.cn
p136
sVsecure
p137
I00
sVvalue
p138
V1948524
p139
sVexpiry
p140
F1463740020.120939
sVpath
p141
g9
sVhttpOnly
p142
I00
sVname
p143
Vuid
p144
sa(dp145
Vdomain
p146
V.m.guopan.cn
p147
sVsecure
p148
I00
sVvalue
p149
V1463739920
p150
sVexpiry
p151
I1495275920
sVpath
p152
g9
sVhttpOnly
p153
I00
sVname
p154
VHm_lvt_6cd1c488b3294714cecd706eb1e8dedd
p155
sa.