(lp0
(dp1
Vdomain
p2
V.guopan.cn
p3
sVsecure
p4
I00
sVvalue
p5
V1
p6
sVexpiry
p7
I1464074111
sVpath
p8
V/
p9
sVhttpOnly
p10
I00
sVname
p11
V_gat
p12
sa(dp13
Vdomain
p14
V.guopan.cn
p15
sVsecure
p16
I00
sVvalue
p17
VGA1.2.1298267907.1464073512
p18
sVexpiry
p19
I1527145515
sVpath
p20
g9
sVhttpOnly
p21
I00
sVname
p22
V_ga
p23
sa(dp24
Vdomain
p25
Vm.guopan.cn
p26
sVname
p27
VurlHref
p28
sVvalue
p29
V
p30
sVpath
p31
g9
sVhttpOnly
p32
I00
sVsecure
p33
I00
sa(dp34
Vdomain
p35
Vm.guopan.cn
p36
sVname
p37
Vuname
p38
sVvalue
p39
Vperfect3
p40
sVpath
p41
g9
sVhttpOnly
p42
I00
sVsecure
p43
I00
sa(dp44
Vdomain
p45
Vm.guopan.cn
p46
sVsecure
p47
I00
sVvalue
p48
VLogin_111_1948524_be008913e017fdeb776d969591737d3c
p49
sVexpiry
p50
F1464332715.091756
sVpath
p51
g9
sVhttpOnly
p52
I00
sVname
p53
Vlk
p54
sa(dp55
Vdomain
p56
V.guopan.cn
p57
sVname
p58
Vgpsessionid
p59
sVvalue
p60
VLogin_111_1948524_be008913e017fdeb776d969591737d3c
p61
sVpath
p62
g9
sVhttpOnly
p63
I00
sVsecure
p64
I00
sa(dp65
Vdomain
p66
Vm.guopan.cn
p67
sVname
p68
Vunickname
p69
sVvalue
p70
V%E6%AD%A3%E6%9C%8D_%E5%AE%8C%E7%BE%8E3
p71
sVpath
p72
g9
sVhttpOnly
p73
I00
sVsecure
p74
I00
sa(dp75
Vdomain
p76
V.m.guopan.cn
p77
sVname
p78
VHm_lpvt_6cd1c488b3294714cecd706eb1e8dedd
p79
sVvalue
p80
V1464073515
p81
sVpath
p82
g9
sVhttpOnly
p83
I00
sVsecure
p84
I00
sa(dp85
Vdomain
p86
Vm.guopan.cn
p87
sVsecure
p88
I00
sVvalue
p89
V1948524
p90
sVexpiry
p91
F1464073615.458496
sVpath
p92
g9
sVhttpOnly
p93
I00
sVname
p94
Vuid
p95
sa(dp96
Vdomain
p97
Vm.guopan.cn
p98
sVname
p99
Vuico
p100
sVvalue
p101
V160401%2Fac%2Fu_20160401172154.jpeg
p102
sVpath
p103
g9
sVhttpOnly
p104
I00
sVsecure
p105
I00
sa(dp106
Vdomain
p107
V.m.guopan.cn
p108
sVsecure
p109
I00
sVvalue
p110
V1464073509
p111
sVexpiry
p112
I1495609515
sVpath
p113
g9
sVhttpOnly
p114
I00
sVname
p115
VHm_lvt_6cd1c488b3294714cecd706eb1e8dedd
p116
sa.