(lp0
(dp1
Vdomain
p2
Vm.guopan.cn
p3
sVname
p4
VurlHref
p5
sVvalue
p6
V
p7
sVpath
p8
V/
p9
sVhttpOnly
p10
I00
sVsecure
p11
I00
sa(dp12
Vdomain
p13
V.guopan.cn
p14
sVsecure
p15
I00
sVvalue
p16
V1
p17
sVexpiry
p18
I1463988993
sVpath
p19
g9
sVhttpOnly
p20
I00
sVname
p21
V_gat
p22
sa(dp23
Vdomain
p24
V.guopan.cn
p25
sVsecure
p26
I00
sVvalue
p27
VGA1.2.661392778.1463988394
p28
sVexpiry
p29
I1527060397
sVpath
p30
g9
sVhttpOnly
p31
I00
sVname
p32
V_ga
p33
sa(dp34
Vdomain
p35
Vm.guopan.cn
p36
sVname
p37
Vuname
p38
sVvalue
p39
Vperfect3
p40
sVpath
p41
g9
sVhttpOnly
p42
I00
sVsecure
p43
I00
sa(dp44
Vdomain
p45
Vm.guopan.cn
p46
sVsecure
p47
I00
sVvalue
p48
VLogin_111_1948524_dd6da738f7373ac32fe74b7f2c7b2ca4
p49
sVexpiry
p50
F1464247597.648857
sVpath
p51
g9
sVhttpOnly
p52
I00
sVname
p53
Vlk
p54
sa(dp55
Vdomain
p56
V.guopan.cn
p57
sVname
p58
Vgpsessionid
p59
sVvalue
p60
VLogin_111_1948524_dd6da738f7373ac32fe74b7f2c7b2ca4
p61
sVpath
p62
g9
sVhttpOnly
p63
I00
sVsecure
p64
I00
sa(dp65
Vdomain
p66
Vm.guopan.cn
p67
sVname
p68
Vunickname
p69
sVvalue
p70
V%E6%AD%A3%E6%9C%8D_%E5%AE%8C%E7%BE%8E3
p71
sVpath
p72
g9
sVhttpOnly
p73
I00
sVsecure
p74
I00
sa(dp75
Vdomain
p76
Vm.guopan.cn
p77
sVsecure
p78
I00
sVvalue
p79
V1948524
p80
sVexpiry
p81
F1463988498.034332
sVpath
p82
g9
sVhttpOnly
p83
I00
sVname
p84
Vuid
p85
sa(dp86
Vdomain
p87
V.m.guopan.cn
p88
sVname
p89
VHm_lpvt_6cd1c488b3294714cecd706eb1e8dedd
p90
sVvalue
p91
V1463988398
p92
sVpath
p93
g9
sVhttpOnly
p94
I00
sVsecure
p95
I00
sa(dp96
Vdomain
p97
Vm.guopan.cn
p98
sVname
p99
Vuico
p100
sVvalue
p101
V160401%2Fac%2Fu_20160401172154.jpeg
p102
sVpath
p103
g9
sVhttpOnly
p104
I00
sVsecure
p105
I00
sa(dp106
Vdomain
p107
V.m.guopan.cn
p108
sVsecure
p109
I00
sVvalue
p110
V1463988394
p111
sVexpiry
p112
I1495524397
sVpath
p113
g9
sVhttpOnly
p114
I00
sVname
p115
VHm_lvt_6cd1c488b3294714cecd706eb1e8dedd
p116
sa.